target datalayout = "e-m:e-p270:32:32-p271:32:32-p272:64:64-i64:64-i128:128-f80:128-n8:16:32:64-S128"
target triple = "x86_64-pc-linux-gnu"

%struct.GCRef = type { i64 }
%struct.IRType1 = type { i8 }
%union.IRIns = type { %struct.GCRef }
%struct.ASMState = type { [32 x i32], ptr, ptr, ptr, ptr, %struct.x86ModRM, i32, i32, i32, i32, i32, i32, i32, i32, i32, i32, i32, i32, i32, i32, i32, i32, i64, i64, i32, i32, i32, i32, i32, ptr, ptr, ptr, ptr, ptr, ptr, ptr, ptr, ptr, [32 x i16], [250 x i16] }
%struct.x86ModRM = type { i32, i8, i8, i8 }
%struct.anon.0 = type { i32, %struct.IRType1, i8, i8, i8 }

; Function Attrs: nounwind uwtable
define internal i32 @ra_alloc1(ptr noundef %0, i32 noundef %1, i32 noundef %2) #0 {
  %4 = alloca ptr, align 8
  %5 = alloca i32, align 4
  %6 = alloca i32, align 4
  %7 = alloca i32, align 4
  store ptr %0, ptr %4, align 8, !tbaa !33
  store i32 %1, ptr %5, align 4, !tbaa !11
  store i32 %2, ptr %6, align 4, !tbaa !11
  call void @llvm.lifetime.start.p0(i64 4, ptr %7) #11
  %8 = load ptr, ptr %4, align 8, !tbaa !33
  %9 = getelementptr inbounds nuw %struct.ASMState, ptr %8, i32 0, i32 3
  %10 = load ptr, ptr %9, align 8, !tbaa !70
  %11 = load i32, ptr %5, align 4, !tbaa !11
  %12 = zext i32 %11 to i64
  %13 = getelementptr inbounds nuw %union.IRIns, ptr %10, i64 %12
  %14 = getelementptr inbounds nuw %struct.anon.0, ptr %13, i32 0, i32 3
  %15 = load i8, ptr %14, align 2, !tbaa !25
  %16 = zext i8 %15 to i32
  store i32 %16, ptr %7, align 4, !tbaa !11
  %17 = load i32, ptr %7, align 4, !tbaa !11
  %18 = and i32 %17, 128
  %19 = icmp ne i32 %18, 0
  br i1 %19, label %20, label %25

20:                                               ; preds = %3
  %21 = load ptr, ptr %4, align 8, !tbaa !33
  %22 = load i32, ptr %5, align 4, !tbaa !11
  %23 = load i32, ptr %6, align 4, !tbaa !11
  %24 = call i32 @ra_allocref(ptr noundef %21, i32 noundef %22, i32 noundef %23)
  store i32 %24, ptr %7, align 4, !tbaa !11
  br label %25

25:                                               ; preds = %20, %3
  %26 = load i32, ptr %7, align 4, !tbaa !11
  %27 = shl i32 1, %26
  %28 = xor i32 %27, -1
  %29 = load ptr, ptr %4, align 8, !tbaa !33
  %30 = getelementptr inbounds nuw %struct.ASMState, ptr %29, i32 0, i32 8
  %31 = load i32, ptr %30, align 8, !tbaa !140
  %32 = and i32 %31, %28
  store i32 %32, ptr %30, align 8, !tbaa !140
  %33 = load i32, ptr %7, align 4, !tbaa !11
  call void @llvm.lifetime.end.p0(i64 4, ptr %7) #11
  ret i32 %33
}