; Function Attrs: nounwind uwtable
define internal fastcc range(i32 0, 256) i32 @ra_alloc1(ptr noundef nonnull captures(none) %0, i32 noundef %1, i32 noundef %2) unnamed_addr #0 {
  %4 = getelementptr inbounds nuw i8, ptr %0, i64 144
  %5 = load ptr, ptr %4, align 8, !tbaa !68
  %6 = zext i32 %1 to i64
  %7 = getelementptr inbounds nuw %union.IRIns, ptr %5, i64 %6
  %8 = getelementptr inbounds nuw i8, ptr %7, i64 6
  %9 = load i8, ptr %8, align 2, !tbaa !20
  %10 = zext nneg i8 %9 to i32
  %.not = icmp sgt i8 %9, -1
  br i1 %.not, label %13, label %11

11:                                               ; preds = %3
  %12 = tail call fastcc i32 @ra_allocref(ptr noundef %0, i32 noundef %1, i32 noundef %2)
  br label %13

13:                                               ; preds = %11, %3
  %.0 = phi i32 [ %12, %11 ], [ %10, %3 ]
  %14 = shl nuw i32 1, %.0
  %15 = xor i32 %14, -1
  %16 = getelementptr inbounds nuw i8, ptr %0, i64 176
  %17 = load i32, ptr %16, align 8, !tbaa !80
  %18 = and i32 %17, %15
  store i32 %18, ptr %16, align 8, !tbaa !80
  ret i32 %.0
}